target datalayout = "e-m:e-p270:32:32-p271:32:32-p272:64:64-i64:64-i128:128-f80:128-n8:16:32:64-S128"
target triple = "x86_64-pc-linux-gnu"

@hf_harq_control_ie_prefix = internal global i32 0, align 4
@hf_harq_control_ie_ai_sn = internal global i32 0, align 4
@hf_harq_control_ie_spid = internal global i32 0, align 4
@hf_harq_control_ie_acid = internal global i32 0, align 4
@hf_harq_control_ie_reserved = internal global i32 0, align 4
@hf_harq_control_ie_prefix_1 = internal global i32 0, align 4
@hf_harq_control_ie_ai_sn_1 = internal global i32 0, align 4
@hf_harq_control_ie_spid_1 = internal global i32 0, align 4
@hf_harq_control_ie_acid_1 = internal global i32 0, align 4
@hf_harq_control_ie_reserved_1 = internal global i32 0, align 4

; Function Attrs: null_pointer_is_valid sspstrong uwtable
define internal i32 @wimax_compact_dlmap_harq_control_ie_decoder(ptr noundef %0, ptr noundef %1, ptr noundef %2, i32 noundef %3, i32 noundef %4) #0 {
  %6 = alloca ptr, align 8
  %7 = alloca ptr, align 8
  %8 = alloca ptr, align 8
  %9 = alloca i32, align 4
  %10 = alloca i32, align 4
  %11 = alloca i32, align 4
  %12 = alloca i32, align 4
  %13 = alloca i32, align 4
  store ptr %0, ptr %6, align 8
  store ptr %1, ptr %7, align 8
  store ptr %2, ptr %8, align 8
  store i32 %3, ptr %9, align 4
  store i32 %4, ptr %10, align 4
  call void @llvm.lifetime.start.p0(i64 4, ptr %11) #3
  call void @llvm.lifetime.start.p0(i64 4, ptr %12) #3
  call void @llvm.lifetime.start.p0(i64 4, ptr %13) #3
  store i32 0, ptr %13, align 4
  %14 = load ptr, ptr %8, align 8
  %15 = load i32, ptr %9, align 4
  %16 = call zeroext i8 @tvb_get_uint8(ptr noundef %14, i32 noundef %15)
  %17 = zext i8 %16 to i32
  store i32 %17, ptr %11, align 4
  %18 = load i32, ptr %10, align 4
  %19 = and i32 %18, 1
  %20 = icmp ne i32 %19, 0
  br i1 %20, label %21, label %54

21:                                               ; preds = %5
  %22 = load i32, ptr %11, align 4
  %23 = and i32 %22, 8
  store i32 %23, ptr %12, align 4
  %24 = load ptr, ptr %6, align 8
  %25 = load i32, ptr @hf_harq_control_ie_prefix_1, align 4
  %26 = load ptr, ptr %8, align 8
  %27 = load i32, ptr %9, align 4
  %28 = call ptr @proto_tree_add_item(ptr noundef %24, i32 noundef %25, ptr noundef %26, i32 noundef %27, i32 noundef 2, i32 noundef 0)
  %29 = load i32, ptr %12, align 4
  %30 = icmp ne i32 %29, 0
  br i1 %30, label %31, label %47

31:                                               ; preds = %21
  %32 = load ptr, ptr %6, align 8
  %33 = load i32, ptr @hf_harq_control_ie_ai_sn_1, align 4
  %34 = load ptr, ptr %8, align 8
  %35 = load i32, ptr %9, align 4
  %36 = call ptr @proto_tree_add_item(ptr noundef %32, i32 noundef %33, ptr noundef %34, i32 noundef %35, i32 noundef 2, i32 noundef 0)
  %37 = load ptr, ptr %6, align 8
  %38 = load i32, ptr @hf_harq_control_ie_spid_1, align 4
  %39 = load ptr, ptr %8, align 8
  %40 = load i32, ptr %9, align 4
  %41 = call ptr @proto_tree_add_item(ptr noundef %37, i32 noundef %38, ptr noundef %39, i32 noundef %40, i32 noundef 2, i32 noundef 0)
  %42 = load ptr, ptr %6, align 8
  %43 = load i32, ptr @hf_harq_control_ie_acid_1, align 4
  %44 = load ptr, ptr %8, align 8
  %45 = load i32, ptr %9, align 4
  %46 = call ptr @proto_tree_add_item(ptr noundef %42, i32 noundef %43, ptr noundef %44, i32 noundef %45, i32 noundef 2, i32 noundef 0)
  store i32 2, ptr %13, align 4
  br label %53

47:                                               ; preds = %21
  %48 = load ptr, ptr %6, align 8
  %49 = load i32, ptr @hf_harq_control_ie_reserved_1, align 4
  %50 = load ptr, ptr %8, align 8
  %51 = load i32, ptr %9, align 4
  %52 = call ptr @proto_tree_add_item(ptr noundef %48, i32 noundef %49, ptr noundef %50, i32 noundef %51, i32 noundef 2, i32 noundef 0)
  store i32 1, ptr %13, align 4
  br label %53

53:                                               ; preds = %47, %31
  br label %87

54:                                               ; preds = %5
  %55 = load i32, ptr %11, align 4
  %56 = and i32 %55, 128
  store i32 %56, ptr %12, align 4
  %57 = load ptr, ptr %6, align 8
  %58 = load i32, ptr @hf_harq_control_ie_prefix, align 4
  %59 = load ptr, ptr %8, align 8
  %60 = load i32, ptr %9, align 4
  %61 = call ptr @proto_tree_add_item(ptr noundef %57, i32 noundef %58, ptr noundef %59, i32 noundef %60, i32 noundef 1, i32 noundef 0)
  %62 = load i32, ptr %12, align 4
  %63 = icmp ne i32 %62, 0
  br i1 %63, label %64, label %80

64:                                               ; preds = %54
  %65 = load ptr, ptr %6, align 8
  %66 = load i32, ptr @hf_harq_control_ie_ai_sn, align 4
  %67 = load ptr, ptr %8, align 8
  %68 = load i32, ptr %9, align 4
  %69 = call ptr @proto_tree_add_item(ptr noundef %65, i32 noundef %66, ptr noundef %67, i32 noundef %68, i32 noundef 1, i32 noundef 0)
  %70 = load ptr, ptr %6, align 8
  %71 = load i32, ptr @hf_harq_control_ie_spid, align 4
  %72 = load ptr, ptr %8, align 8
  %73 = load i32, ptr %9, align 4
  %74 = call ptr @proto_tree_add_item(ptr noundef %70, i32 noundef %71, ptr noundef %72, i32 noundef %73, i32 noundef 1, i32 noundef 0)
  %75 = load ptr, ptr %6, align 8
  %76 = load i32, ptr @hf_harq_control_ie_acid, align 4
  %77 = load ptr, ptr %8, align 8
  %78 = load i32, ptr %9, align 4
  %79 = call ptr @proto_tree_add_item(ptr noundef %75, i32 noundef %76, ptr noundef %77, i32 noundef %78, i32 noundef 1, i32 noundef 0)
  store i32 2, ptr %13, align 4
  br label %86

80:                                               ; preds = %54
  %81 = load ptr, ptr %6, align 8
  %82 = load i32, ptr @hf_harq_control_ie_reserved, align 4
  %83 = load ptr, ptr %8, align 8
  %84 = load i32, ptr %9, align 4
  %85 = call ptr @proto_tree_add_item(ptr noundef %81, i32 noundef %82, ptr noundef %83, i32 noundef %84, i32 noundef 1, i32 noundef 0)
  store i32 1, ptr %13, align 4
  br label %86

86:                                               ; preds = %80, %64
  br label %87

87:                                               ; preds = %86, %53
  %88 = load i32, ptr %13, align 4
  call void @llvm.lifetime.end.p0(i64 4, ptr %13) #3
  call void @llvm.lifetime.end.p0(i64 4, ptr %12) #3
  call void @llvm.lifetime.end.p0(i64 4, ptr %11) #3
  ret i32 %88
}