; Function Attrs: null_pointer_is_valid sspstrong uwtable
define internal fastcc range(i32 1, 3) i32 @wimax_compact_dlmap_harq_control_ie_decoder(ptr noundef %0, ptr noundef %1, i32 noundef %2, i32 noundef %3) unnamed_addr #0 {
  %5 = tail call zeroext i8 @tvb_get_uint8(ptr noundef %1, i32 noundef %2)
  %6 = and i32 %3, 1
  %.not = icmp eq i32 %6, 0
  br i1 %.not, label %11, label %7

7:                                                ; preds = %4
  %8 = and i8 %5, 8
  %9 = load i32, ptr @hf_harq_control_ie_prefix_1, align 4
  %10 = tail call ptr @proto_tree_add_item(ptr noundef %0, i32 noundef %9, ptr noundef %1, i32 noundef %2, i32 noundef 2, i32 noundef 0)
  %.not38 = icmp eq i8 %8, 0
  br i1 %.not38, label %18, label %.sink.split

11:                                               ; preds = %4
  %12 = load i32, ptr @hf_harq_control_ie_prefix, align 4
  %13 = tail call ptr @proto_tree_add_item(ptr noundef %0, i32 noundef %12, ptr noundef %1, i32 noundef %2, i32 noundef 1, i32 noundef 0)
  %.not37 = icmp sgt i8 %5, -1
  br i1 %.not37, label %18, label %.sink.split

.sink.split:                                      ; preds = %11, %7
  %hf_harq_control_ie_ai_sn.sink = phi ptr [ @hf_harq_control_ie_ai_sn_1, %7 ], [ @hf_harq_control_ie_ai_sn, %11 ]
  %.sink3 = phi i32 [ 2, %7 ], [ 1, %11 ]
  %hf_harq_control_ie_spid.sink = phi ptr [ @hf_harq_control_ie_spid_1, %7 ], [ @hf_harq_control_ie_spid, %11 ]
  %hf_harq_control_ie_acid.sink.ph = phi ptr [ @hf_harq_control_ie_acid_1, %7 ], [ @hf_harq_control_ie_acid, %11 ]
  %14 = load i32, ptr %hf_harq_control_ie_ai_sn.sink, align 4
  %15 = tail call ptr @proto_tree_add_item(ptr noundef %0, i32 noundef %14, ptr noundef %1, i32 noundef %2, i32 noundef %.sink3, i32 noundef 0)
  %16 = load i32, ptr %hf_harq_control_ie_spid.sink, align 4
  %17 = tail call ptr @proto_tree_add_item(ptr noundef %0, i32 noundef %16, ptr noundef %1, i32 noundef %2, i32 noundef %.sink3, i32 noundef 0)
  br label %18

18:                                               ; preds = %.sink.split, %11, %7
  %hf_harq_control_ie_acid.sink = phi ptr [ @hf_harq_control_ie_reserved_1, %7 ], [ @hf_harq_control_ie_reserved, %11 ], [ %hf_harq_control_ie_acid.sink.ph, %.sink.split ]
  %.sink1 = phi i32 [ 2, %7 ], [ 1, %11 ], [ %.sink3, %.sink.split ]
  %.0 = phi i32 [ 1, %7 ], [ 1, %11 ], [ 2, %.sink.split ]
  %19 = load i32, ptr %hf_harq_control_ie_acid.sink, align 4
  %20 = tail call ptr @proto_tree_add_item(ptr noundef %0, i32 noundef %19, ptr noundef %1, i32 noundef %2, i32 noundef %.sink1, i32 noundef 0)
  ret i32 %.0
}